target datalayout = "e-m:e-p270:32:32-p271:32:32-p272:64:64-i64:64-i128:128-f80:128-n8:16:32:64-S128"
target triple = "x86_64-unknown-linux-gnu"

%struct.E1000EState = type { %struct.PCIDevice, ptr, %struct.NICConf, %struct.MemoryRegion, %struct.MemoryRegion, %struct.MemoryRegion, %struct.MemoryRegion, i32, i16, i16, i16, i16, i8, %struct.E1000Core, i8, i8 }
%struct.PCIDevice = type { %struct.DeviceState, i8, i8, ptr, ptr, ptr, ptr, ptr, i32, %struct.PCIReqIDCache, [64 x i8], [7 x %struct.PCIIORegion], %struct.AddressSpace, %struct.MemoryRegion, %struct.MemoryRegion, ptr, ptr, [3 x ptr], i8, i8, i32, i8, i32, ptr, ptr, ptr, ptr, ptr, ptr, %struct.MemoryRegion, %struct.MemoryRegion, %struct.MemoryRegion, ptr, i8, i32, i8, %struct.PCIExpressDevice, ptr, ptr, i32, i8, %struct.MemoryRegion, i32, ptr, ptr, ptr, ptr, ptr, i32 }
%struct.DeviceState = type { %struct.Object, ptr, ptr, i8, i8, i64, ptr, i32, i8, ptr, %struct.NamedGPIOListHead, %struct.NamedClockListHead, %struct.BusStateHead, i32, i32, i32, %struct.ResettableState, ptr, %struct.MemReentrancyGuard }
%struct.Object = type { ptr, ptr, ptr, i32, ptr }
%struct.NamedGPIOListHead = type { ptr }
%struct.NamedClockListHead = type { ptr }
%struct.BusStateHead = type { ptr }
%struct.ResettableState = type { i32, i8, i8 }
%struct.MemReentrancyGuard = type { i8 }
%struct.PCIReqIDCache = type { ptr, i32 }
%struct.PCIIORegion = type { i64, i64, i8, ptr, ptr }
%struct.AddressSpace = type { %struct.rcu_head, ptr, ptr, ptr, i32, i32, ptr, %union.anon, %union.anon.0 }
%struct.rcu_head = type { ptr, ptr }
%union.anon = type { %struct.QTailQLink }
%struct.QTailQLink = type { ptr, ptr }
%union.anon.0 = type { %struct.QTailQLink }
%struct.PCIExpressDevice = type { i8, i8, i8, i16, %struct.PCIEAERLog, i16, i16, i16, %struct.PCIESriovPF, %struct.PCIESriovVF }
%struct.PCIEAERLog = type { i16, i16, ptr }
%struct.PCIESriovPF = type { i16, [7 x i8], ptr, ptr }
%struct.PCIESriovVF = type { ptr, i16 }
%struct.NICConf = type { %struct.MACAddr, %struct.NICPeers, i32 }
%struct.MACAddr = type { [6 x i8] }
%struct.NICPeers = type { [1024 x ptr], i32 }
%struct.MemoryRegion = type { %struct.Object, i8, i8, i8, i8, i8, i8, i8, i8, i8, i8, ptr, ptr, ptr, ptr, ptr, ptr, i32, i128, i64, ptr, i64, i8, i8, i8, i8, i8, ptr, i64, i32, %union.anon.1, %union.anon.2, %union.anon.3, ptr, i32, ptr, ptr, i8 }
%union.anon.1 = type { %struct.QTailQLink }
%union.anon.2 = type { %struct.QTailQLink }
%union.anon.3 = type { %struct.QTailQLink }
%struct.E1000Core = type { [32768 x i32], [7 x [32 x i16]], [64 x i16], [4 x i32], i32, i32, i8, ptr, [2 x %struct.e1000e_tx], ptr, i8, i32, i32, %struct.E1000IntrDelayTimer_st, %struct.E1000IntrDelayTimer_st, %struct.E1000IntrDelayTimer_st, %struct.E1000IntrDelayTimer_st, %struct.E1000IntrDelayTimer_st, %struct.E1000IntrDelayTimer_st, [5 x %struct.E1000IntrDelayTimer_st], ptr, i32, [5 x i32], i16, [6 x i8], ptr, ptr, ptr, i64 }
%struct.e1000e_tx = type { %struct.e1000x_txd_props, i8, i8, i8, ptr }
%struct.e1000x_txd_props = type { i8, i8, i16, i8, i8, i16, i32, i8, i16, i8, i8, i8 }
%struct.E1000IntrDelayTimer_st = type { ptr, i8, i32, i32, ptr }

@.str = private unnamed_addr constant [7 x i8] c"e1000e\00", align 1
@.str.5 = private unnamed_addr constant [24 x i8] c"../qemu/hw/net/e1000e.c\00", align 1
@__func__.E1000E = private unnamed_addr constant [7 x i8] c"E1000E\00", align 1

; Function Attrs: nounwind sspstrong uwtable
define internal i64 @range_get_last(i64 noundef %offset, i64 noundef %len) #0 {
entry:
  %offset.addr = alloca i64, align 8
  %len.addr = alloca i64, align 8
  store i64 %offset, ptr %offset.addr, align 8
  store i64 %len, ptr %len.addr, align 8
  %0 = load i64, ptr %offset.addr, align 8
  %1 = load i64, ptr %len.addr, align 8
  %add = add i64 %0, %1
  %sub = sub i64 %add, 1
  ret i64 %sub
}

; Function Attrs: nounwind sspstrong uwtable
define internal i32 @range_covers_byte(i64 noundef %offset, i64 noundef %len, i64 noundef %byte) #0 {
entry:
  %offset.addr = alloca i64, align 8
  %len.addr = alloca i64, align 8
  %byte.addr = alloca i64, align 8
  store i64 %offset, ptr %offset.addr, align 8
  store i64 %len, ptr %len.addr, align 8
  store i64 %byte, ptr %byte.addr, align 8
  %0 = load i64, ptr %offset.addr, align 8
  %1 = load i64, ptr %byte.addr, align 8
  %cmp = icmp ule i64 %0, %1
  br i1 %cmp, label %land.rhs, label %land.end

land.rhs:                                         ; preds = %entry
  %2 = load i64, ptr %byte.addr, align 8
  %3 = load i64, ptr %offset.addr, align 8
  %4 = load i64, ptr %len.addr, align 8
  %call = call i64 @range_get_last(i64 noundef %3, i64 noundef %4)
  %cmp1 = icmp ule i64 %2, %call
  br label %land.end

land.end:                                         ; preds = %land.rhs, %entry
  %5 = phi i1 [ false, %entry ], [ %cmp1, %land.rhs ]
  %land.ext = zext i1 %5 to i32
  ret i32 %land.ext
}

; Function Attrs: nounwind sspstrong uwtable
define internal ptr @E1000E(ptr noundef %obj) #0 {
entry:
  %obj.addr = alloca ptr, align 8
  store ptr %obj, ptr %obj.addr, align 8
  %0 = load ptr, ptr %obj.addr, align 8
  %call = call ptr @object_dynamic_cast_assert(ptr noundef %0, ptr noundef @.str, ptr noundef @.str.5, i32 noundef 60, ptr noundef @__func__.E1000E)
  ret ptr %call
}

; Function Attrs: nounwind sspstrong uwtable
define internal void @e1000e_write_config(ptr noundef %pci_dev, i32 noundef %address, i32 noundef %val, i32 noundef %len) #0 {
entry:
  %pci_dev.addr = alloca ptr, align 8
  %address.addr = alloca i32, align 4
  %val.addr = alloca i32, align 4
  %len.addr = alloca i32, align 4
  %s = alloca ptr, align 8
  store ptr %pci_dev, ptr %pci_dev.addr, align 8
  store i32 %address, ptr %address.addr, align 4
  store i32 %val, ptr %val.addr, align 4
  store i32 %len, ptr %len.addr, align 4
  %0 = load ptr, ptr %pci_dev.addr, align 8
  %call = call ptr @E1000E(ptr noundef %0)
  store ptr %call, ptr %s, align 8
  %1 = load ptr, ptr %pci_dev.addr, align 8
  %2 = load i32, ptr %address.addr, align 4
  %3 = load i32, ptr %val.addr, align 4
  %4 = load i32, ptr %len.addr, align 4
  call void @pci_default_write_config(ptr noundef %1, i32 noundef %2, i32 noundef %3, i32 noundef %4)
  %5 = load i32, ptr %address.addr, align 4
  %conv = zext i32 %5 to i64
  %6 = load i32, ptr %len.addr, align 4
  %conv1 = sext i32 %6 to i64
  %call2 = call i32 @range_covers_byte(i64 noundef %conv, i64 noundef %conv1, i64 noundef 4)
  %tobool = icmp ne i32 %call2, 0
  br i1 %tobool, label %land.lhs.true, label %if.end

land.lhs.true:                                    ; preds = %entry
  %7 = load ptr, ptr %pci_dev.addr, align 8
  %config = getelementptr inbounds %struct.PCIDevice, ptr %7, i32 0, i32 3
  %8 = load ptr, ptr %config, align 8
  %arrayidx = getelementptr i8, ptr %8, i64 4
  %9 = load i8, ptr %arrayidx, align 1
  %conv3 = zext i8 %9 to i32
  %and = and i32 %conv3, 4
  %tobool4 = icmp ne i32 %and, 0
  br i1 %tobool4, label %if.then, label %if.end

if.then:                                          ; preds = %land.lhs.true
  %10 = load ptr, ptr %s, align 8
  %core = getelementptr inbounds %struct.E1000EState, ptr %10, i32 0, i32 13
  call void @e1000e_start_recv(ptr noundef %core)
  br label %if.end

if.end:                                           ; preds = %if.then, %land.lhs.true, %entry
  ret void
}