; Function Attrs: nounwind sspstrong uwtable
define internal void @e1000e_write_config(ptr noundef %pci_dev, i32 noundef %address, i32 noundef %val, i32 noundef %len) #0 {
entry:
  %call.i = tail call ptr @object_dynamic_cast_assert(ptr noundef %pci_dev, ptr noundef nonnull @.str, ptr noundef nonnull @.str.5, i32 noundef 60, ptr noundef nonnull @__func__.E1000E) #9
  tail call void @pci_default_write_config(ptr noundef %pci_dev, i32 noundef %address, i32 noundef %val, i32 noundef %len) #9
  %conv = zext i32 %address to i64
  %conv1 = sext i32 %len to i64
  %cmp.i = icmp ugt i32 %address, 4
  %add.i.i = add nsw i64 %conv, -1
  %sub.i.i = add nsw i64 %add.i.i, %conv1
  %cmp1.i = icmp ult i64 %sub.i.i, 4
  %narrow.i.not = select i1 %cmp.i, i1 true, i1 %cmp1.i
  br i1 %narrow.i.not, label %if.end, label %land.lhs.true

land.lhs.true:                                    ; preds = %entry
  %config = getelementptr inbounds nuw i8, ptr %pci_dev, i64 168
  %0 = load ptr, ptr %config, align 8
  %arrayidx = getelementptr i8, ptr %0, i64 4
  %1 = load i8, ptr %arrayidx, align 1
  %2 = and i8 %1, 4
  %tobool4.not = icmp eq i8 %2, 0
  br i1 %tobool4.not, label %if.end, label %if.then

if.then:                                          ; preds = %land.lhs.true
  %core = getelementptr inbounds nuw i8, ptr %call.i, i64 11936
  tail call void @e1000e_start_recv(ptr noundef nonnull %core) #9
  br label %if.end

if.end:                                           ; preds = %if.then, %land.lhs.true, %entry
  ret void
}